target datalayout = "e-m:e-p270:32:32-p271:32:32-p272:64:64-i64:64-i128:128-f80:128-n8:16:32:64-S128"
target triple = "x86_64-pc-linux-gnu"

%"class.OpenColorIO_v2_5dev::RangeOpCPU" = type { %"class.OpenColorIO_v2_5dev::OpCPU", float, float, float, float }
%"class.OpenColorIO_v2_5dev::OpCPU" = type { ptr }

; Function Attrs: inlinehint mustprogress nounwind uwtable
define linkonce_odr noundef nonnull align 4 dereferenceable(4) ptr @_ZSt3minIfERKT_S2_S2_(ptr noundef nonnull align 4 dereferenceable(4) %0, ptr noundef nonnull align 4 dereferenceable(4) %1) #7 comdat {
  %3 = alloca ptr, align 8
  %4 = alloca ptr, align 8
  %5 = alloca ptr, align 8
  store ptr %0, ptr %4, align 8, !tbaa !56
  store ptr %1, ptr %5, align 8, !tbaa !56
  %6 = load ptr, ptr %5, align 8, !tbaa !56
  %7 = load float, ptr %6, align 4, !tbaa !58
  %8 = load ptr, ptr %4, align 8, !tbaa !56
  %9 = load float, ptr %8, align 4, !tbaa !58
  %10 = fcmp olt float %7, %9
  br i1 %10, label %11, label %13

11:                                               ; preds = %2
  %12 = load ptr, ptr %5, align 8, !tbaa !56
  store ptr %12, ptr %3, align 8
  br label %15

13:                                               ; preds = %2
  %14 = load ptr, ptr %4, align 8, !tbaa !56
  store ptr %14, ptr %3, align 8
  br label %15

15:                                               ; preds = %13, %11
  %16 = load ptr, ptr %3, align 8
  ret ptr %16
}

; Function Attrs: mustprogress uwtable
define hidden void @_ZNK19OpenColorIO_v2_5dev16RangeMaxRenderer5applyEPKvPvl(ptr noundef nonnull align 8 dereferenceable(24) %0, ptr noundef %1, ptr noundef %2, i64 noundef %3) unnamed_addr #4 align 2 {
  %5 = alloca ptr, align 8
  %6 = alloca ptr, align 8
  %7 = alloca ptr, align 8
  %8 = alloca i64, align 8
  %9 = alloca ptr, align 8
  %10 = alloca ptr, align 8
  %11 = alloca i64, align 8
  store ptr %0, ptr %5, align 8, !tbaa !67
  store ptr %1, ptr %6, align 8, !tbaa !54
  store ptr %2, ptr %7, align 8, !tbaa !54
  store i64 %3, ptr %8, align 8, !tbaa !55
  %12 = load ptr, ptr %5, align 8
  call void @llvm.lifetime.start.p0(i64 8, ptr %9) #3
  %13 = load ptr, ptr %6, align 8, !tbaa !54
  store ptr %13, ptr %9, align 8, !tbaa !56
  call void @llvm.lifetime.start.p0(i64 8, ptr %10) #3
  %14 = load ptr, ptr %7, align 8, !tbaa !54
  store ptr %14, ptr %10, align 8, !tbaa !56
  call void @llvm.lifetime.start.p0(i64 8, ptr %11) #3
  store i64 0, ptr %11, align 8, !tbaa !55
  br label %15

15:                                               ; preds = %51, %4
  %16 = load i64, ptr %11, align 8, !tbaa !55
  %17 = load i64, ptr %8, align 8, !tbaa !55
  %18 = icmp slt i64 %16, %17
  br i1 %18, label %20, label %19

19:                                               ; preds = %15
  call void @llvm.lifetime.end.p0(i64 8, ptr %11) #3
  br label %54

20:                                               ; preds = %15
  %21 = getelementptr inbounds nuw %"class.OpenColorIO_v2_5dev::RangeOpCPU", ptr %12, i32 0, i32 4
  %22 = load ptr, ptr %9, align 8, !tbaa !56
  %23 = getelementptr inbounds float, ptr %22, i64 0
  %24 = call noundef nonnull align 4 dereferenceable(4) ptr @_ZSt3minIfERKT_S2_S2_(ptr noundef nonnull align 4 dereferenceable(4) %21, ptr noundef nonnull align 4 dereferenceable(4) %23)
  %25 = load float, ptr %24, align 4, !tbaa !58
  %26 = load ptr, ptr %10, align 8, !tbaa !56
  %27 = getelementptr inbounds float, ptr %26, i64 0
  store float %25, ptr %27, align 4, !tbaa !58
  %28 = getelementptr inbounds nuw %"class.OpenColorIO_v2_5dev::RangeOpCPU", ptr %12, i32 0, i32 4
  %29 = load ptr, ptr %9, align 8, !tbaa !56
  %30 = getelementptr inbounds float, ptr %29, i64 1
  %31 = call noundef nonnull align 4 dereferenceable(4) ptr @_ZSt3minIfERKT_S2_S2_(ptr noundef nonnull align 4 dereferenceable(4) %28, ptr noundef nonnull align 4 dereferenceable(4) %30)
  %32 = load float, ptr %31, align 4, !tbaa !58
  %33 = load ptr, ptr %10, align 8, !tbaa !56
  %34 = getelementptr inbounds float, ptr %33, i64 1
  store float %32, ptr %34, align 4, !tbaa !58
  %35 = getelementptr inbounds nuw %"class.OpenColorIO_v2_5dev::RangeOpCPU", ptr %12, i32 0, i32 4
  %36 = load ptr, ptr %9, align 8, !tbaa !56
  %37 = getelementptr inbounds float, ptr %36, i64 2
  %38 = call noundef nonnull align 4 dereferenceable(4) ptr @_ZSt3minIfERKT_S2_S2_(ptr noundef nonnull align 4 dereferenceable(4) %35, ptr noundef nonnull align 4 dereferenceable(4) %37)
  %39 = load float, ptr %38, align 4, !tbaa !58
  %40 = load ptr, ptr %10, align 8, !tbaa !56
  %41 = getelementptr inbounds float, ptr %40, i64 2
  store float %39, ptr %41, align 4, !tbaa !58
  %42 = load ptr, ptr %9, align 8, !tbaa !56
  %43 = getelementptr inbounds float, ptr %42, i64 3
  %44 = load float, ptr %43, align 4, !tbaa !58
  %45 = load ptr, ptr %10, align 8, !tbaa !56
  %46 = getelementptr inbounds float, ptr %45, i64 3
  store float %44, ptr %46, align 4, !tbaa !58
  %47 = load ptr, ptr %9, align 8, !tbaa !56
  %48 = getelementptr inbounds float, ptr %47, i64 4
  store ptr %48, ptr %9, align 8, !tbaa !56
  %49 = load ptr, ptr %10, align 8, !tbaa !56
  %50 = getelementptr inbounds float, ptr %49, i64 4
  store ptr %50, ptr %10, align 8, !tbaa !56
  br label %51

51:                                               ; preds = %20
  %52 = load i64, ptr %11, align 8, !tbaa !55
  %53 = add nsw i64 %52, 1
  store i64 %53, ptr %11, align 8, !tbaa !55
  br label %15, !llvm.loop !69

54:                                               ; preds = %19
  call void @llvm.lifetime.end.p0(i64 8, ptr %10) #3
  call void @llvm.lifetime.end.p0(i64 8, ptr %9) #3
  ret void
}